; Function Attrs: mustprogress nounwind uwtable
define void @_ZN14TestDataModuleD2Ev(ptr nocapture noundef nonnull align 8 dereferenceable(32) %this) unnamed_addr #0 align 2 {
entry:
  store ptr getelementptr inbounds ({ [7 x ptr] }, ptr @_ZTV14TestDataModule, i64 0, i32 0, i64 2), ptr %this, align 8
  %fInfo = getelementptr inbounds i8, ptr %this, i64 16
  %0 = load ptr, ptr %fInfo, align 8
  %cmp.not = icmp eq ptr %0, null
  br i1 %cmp.not, label %if.end, label %delete.notnull

delete.notnull:                                   ; preds = %entry
  %vtable = load ptr, ptr %0, align 8
  %vfn = getelementptr inbounds i8, ptr %vtable, i64 8
  %1 = load ptr, ptr %vfn, align 8
  tail call void %1(ptr noundef nonnull align 8 dereferenceable(8) %0) #20
  br label %if.end

if.end:                                           ; preds = %delete.notnull, %entry
  ret void
}